target datalayout = "e-m:e-p270:32:32-p271:32:32-p272:64:64-i64:64-i128:128-f80:128-n8:16:32:64-S128"
target triple = "x86_64-pc-linux-gnu"

; Function Attrs: nounwind uwtable
define i32 @NET_SetSockOpt(i32 noundef %0, i32 noundef %1, i32 noundef %2, ptr noundef %3, i32 noundef %4) #0 {
  %6 = alloca i32, align 4
  %7 = alloca i32, align 4
  %8 = alloca i32, align 4
  %9 = alloca i32, align 4
  %10 = alloca ptr, align 8
  %11 = alloca i32, align 4
  %12 = alloca ptr, align 8
  %13 = alloca i32, align 4
  %14 = alloca ptr, align 8
  store i32 %0, ptr %7, align 4
  store i32 %1, ptr %8, align 4
  store i32 %2, ptr %9, align 4
  store ptr %3, ptr %10, align 8
  store i32 %4, ptr %11, align 4
  %15 = load i32, ptr %8, align 4
  %16 = icmp eq i32 %15, 0
  br i1 %16, label %17, label %41

17:                                               ; preds = %5
  %18 = load i32, ptr %9, align 4
  %19 = icmp eq i32 %18, 1
  br i1 %19, label %20, label %41

20:                                               ; preds = %17
  %21 = call i32 (...) @ipv6_available()
  %22 = icmp ne i32 %21, 0
  br i1 %22, label %23, label %36

23:                                               ; preds = %20
  store i32 1, ptr %13, align 4
  %24 = load i32, ptr %7, align 4
  %25 = call i32 @setsockopt(i32 noundef %24, i32 noundef 41, i32 noundef 33, ptr noundef %13, i32 noundef 4) #9
  %26 = icmp slt i32 %25, 0
  br i1 %26, label %27, label %28

27:                                               ; preds = %23
  store i32 -1, ptr %6, align 4
  br label %62

28:                                               ; preds = %23
  %29 = load i32, ptr %7, align 4
  %30 = load ptr, ptr %10, align 8
  %31 = load i32, ptr %11, align 4
  %32 = call i32 @setsockopt(i32 noundef %29, i32 noundef 41, i32 noundef 67, ptr noundef %30, i32 noundef %31) #9
  %33 = icmp slt i32 %32, 0
  br i1 %33, label %34, label %35

34:                                               ; preds = %28
  store i32 -1, ptr %6, align 4
  br label %62

35:                                               ; preds = %28
  br label %36

36:                                               ; preds = %35, %20
  %37 = load ptr, ptr %10, align 8
  store ptr %37, ptr %12, align 8
  %38 = load ptr, ptr %12, align 8
  %39 = load i32, ptr %38, align 4
  %40 = and i32 %39, 254
  store i32 %40, ptr %38, align 4
  br label %41

41:                                               ; preds = %36, %17, %5
  %42 = load i32, ptr %8, align 4
  %43 = icmp eq i32 %42, 1
  br i1 %43, label %44, label %55

44:                                               ; preds = %41
  %45 = load i32, ptr %9, align 4
  %46 = icmp eq i32 %45, 8
  br i1 %46, label %47, label %55

47:                                               ; preds = %44
  %48 = load ptr, ptr %10, align 8
  store ptr %48, ptr %14, align 8
  %49 = load ptr, ptr %14, align 8
  %50 = load i32, ptr %49, align 4
  %51 = icmp slt i32 %50, 1024
  br i1 %51, label %52, label %54

52:                                               ; preds = %47
  %53 = load ptr, ptr %14, align 8
  store i32 1024, ptr %53, align 4
  br label %54

54:                                               ; preds = %52, %47
  br label %55

55:                                               ; preds = %54, %44, %41
  %56 = load i32, ptr %7, align 4
  %57 = load i32, ptr %8, align 4
  %58 = load i32, ptr %9, align 4
  %59 = load ptr, ptr %10, align 8
  %60 = load i32, ptr %11, align 4
  %61 = call i32 @setsockopt(i32 noundef %56, i32 noundef %57, i32 noundef %58, ptr noundef %59, i32 noundef %60) #9
  store i32 %61, ptr %6, align 4
  br label %62

62:                                               ; preds = %55, %34, %27
  %63 = load i32, ptr %6, align 4
  ret i32 %63
}