; Function Attrs: nounwind uwtable
define i32 @NET_SetSockOpt(i32 noundef %0, i32 noundef %1, i32 noundef %2, ptr noundef %3, i32 noundef %4) local_unnamed_addr #0 {
  %6 = alloca i32, align 4
  %7 = icmp eq i32 %1, 0
  %8 = icmp eq i32 %2, 1
  %or.cond = and i1 %7, %8
  br i1 %or.cond, label %9, label %19

9:                                                ; preds = %5
  %10 = tail call i32 (...) @ipv6_available() #13
  %.not = icmp eq i32 %10, 0
  br i1 %.not, label %.thread, label %11

11:                                               ; preds = %9
  store i32 1, ptr %6, align 4
  %12 = call i32 @setsockopt(i32 noundef %0, i32 noundef 41, i32 noundef 33, ptr noundef nonnull %6, i32 noundef 4) #13
  %13 = icmp slt i32 %12, 0
  br i1 %13, label %27, label %14

14:                                               ; preds = %11
  %15 = call i32 @setsockopt(i32 noundef %0, i32 noundef 41, i32 noundef 67, ptr noundef %3, i32 noundef %4) #13
  %16 = icmp slt i32 %15, 0
  br i1 %16, label %27, label %.thread

.thread:                                          ; preds = %9, %14
  %17 = load i32, ptr %3, align 4
  %18 = and i32 %17, 254
  br label %.sink.split

19:                                               ; preds = %5
  %20 = icmp eq i32 %1, 1
  %21 = icmp eq i32 %2, 8
  %or.cond3 = and i1 %20, %21
  br i1 %or.cond3, label %22, label %25

22:                                               ; preds = %19
  %23 = load i32, ptr %3, align 4
  %24 = icmp slt i32 %23, 1024
  br i1 %24, label %.sink.split, label %25

.sink.split:                                      ; preds = %22, %.thread
  %.sink = phi i32 [ %18, %.thread ], [ 1024, %22 ]
  store i32 %.sink, ptr %3, align 4
  br label %25

25:                                               ; preds = %.sink.split, %22, %19
  %26 = call i32 @setsockopt(i32 noundef %0, i32 noundef %1, i32 noundef %2, ptr noundef %3, i32 noundef %4) #13
  br label %27

27:                                               ; preds = %14, %11, %25
  %.0 = phi i32 [ %26, %25 ], [ -1, %11 ], [ -1, %14 ]
  ret i32 %.0
}